target datalayout = "e-m:e-p270:32:32-p271:32:32-p272:64:64-i64:64-i128:128-f80:128-n8:16:32:64-S128"
target triple = "x86_64-pc-linux-gnu"

%struct.aiNode = type { %struct.aiString, %class.aiMatrix4x4t, ptr, i32, ptr, i32, ptr, ptr }
%struct.aiString = type { i32, [1024 x i8] }
%class.aiMatrix4x4t = type { float, float, float, float, float, float, float, float, float, float, float, float, float, float, float, float }

; Function Attrs: mustprogress uwtable
define void @_ZN6Assimp13SceneCombiner21OffsetNodeMeshIndicesEP6aiNodej(ptr noundef %0, i32 noundef %1) #0 align 2 {
  %3 = alloca ptr, align 8
  %4 = alloca i32, align 4
  %5 = alloca i32, align 4
  %6 = alloca i32, align 4
  store ptr %0, ptr %3, align 8
  store i32 %1, ptr %4, align 4
  call void @llvm.lifetime.start.p0(i64 4, ptr %5) #17
  store i32 0, ptr %5, align 4
  br label %7

7:                                                ; preds = %24, %2
  %8 = load i32, ptr %5, align 4
  %9 = load ptr, ptr %3, align 8
  %10 = getelementptr inbounds nuw %struct.aiNode, ptr %9, i32 0, i32 5
  %11 = load i32, ptr %10, align 8
  %12 = icmp ult i32 %8, %11
  br i1 %12, label %14, label %13

13:                                               ; preds = %7
  call void @llvm.lifetime.end.p0(i64 4, ptr %5) #17
  br label %27

14:                                               ; preds = %7
  %15 = load i32, ptr %4, align 4
  %16 = load ptr, ptr %3, align 8
  %17 = getelementptr inbounds nuw %struct.aiNode, ptr %16, i32 0, i32 6
  %18 = load ptr, ptr %17, align 8
  %19 = load i32, ptr %5, align 4
  %20 = zext i32 %19 to i64
  %21 = getelementptr inbounds nuw i32, ptr %18, i64 %20
  %22 = load i32, ptr %21, align 4
  %23 = add i32 %22, %15
  store i32 %23, ptr %21, align 4
  br label %24

24:                                               ; preds = %14
  %25 = load i32, ptr %5, align 4
  %26 = add i32 %25, 1
  store i32 %26, ptr %5, align 4
  br label %7, !llvm.loop !10

27:                                               ; preds = %13
  call void @llvm.lifetime.start.p0(i64 4, ptr %6) #17
  store i32 0, ptr %6, align 4
  br label %28

28:                                               ; preds = %44, %27
  %29 = load i32, ptr %6, align 4
  %30 = load ptr, ptr %3, align 8
  %31 = getelementptr inbounds nuw %struct.aiNode, ptr %30, i32 0, i32 3
  %32 = load i32, ptr %31, align 8
  %33 = icmp ult i32 %29, %32
  br i1 %33, label %35, label %34

34:                                               ; preds = %28
  call void @llvm.lifetime.end.p0(i64 4, ptr %6) #17
  br label %47

35:                                               ; preds = %28
  %36 = load ptr, ptr %3, align 8
  %37 = getelementptr inbounds nuw %struct.aiNode, ptr %36, i32 0, i32 4
  %38 = load ptr, ptr %37, align 8
  %39 = load i32, ptr %6, align 4
  %40 = zext i32 %39 to i64
  %41 = getelementptr inbounds nuw ptr, ptr %38, i64 %40
  %42 = load ptr, ptr %41, align 8
  %43 = load i32, ptr %4, align 4
  call void @_ZN6Assimp13SceneCombiner21OffsetNodeMeshIndicesEP6aiNodej(ptr noundef %42, i32 noundef %43)
  br label %44

44:                                               ; preds = %35
  %45 = load i32, ptr %6, align 4
  %46 = add i32 %45, 1
  store i32 %46, ptr %6, align 4
  br label %28, !llvm.loop !11

47:                                               ; preds = %34
  ret void
}