; Function Attrs: mustprogress nofree nosync nounwind memory(readwrite, inaccessiblemem: none) uwtable
define void @_ZN6Assimp13SceneCombiner21OffsetNodeMeshIndicesEP6aiNodej(ptr noundef readonly captures(none) %0, i32 noundef %1) local_unnamed_addr #3 align 2 {
  %3 = getelementptr inbounds nuw i8, ptr %0, i64 1120
  %4 = load i32, ptr %3, align 8
  %.not = icmp eq i32 %4, 0
  br i1 %.not, label %.preheader, label %.lr.ph

.lr.ph:                                           ; preds = %2
  %5 = getelementptr inbounds nuw i8, ptr %0, i64 1128
  br label %9

.preheader:                                       ; preds = %9, %2
  %6 = getelementptr inbounds nuw i8, ptr %0, i64 1104
  %7 = load i32, ptr %6, align 8
  %.not15 = icmp eq i32 %7, 0
  br i1 %.not15, label %._crit_edge, label %.lr.ph14

.lr.ph14:                                         ; preds = %.preheader
  %8 = getelementptr inbounds nuw i8, ptr %0, i64 1112
  br label %17

9:                                                ; preds = %.lr.ph, %9
  %indvars.iv = phi i64 [ 0, %.lr.ph ], [ %indvars.iv.next, %9 ]
  %10 = load ptr, ptr %5, align 8
  %11 = getelementptr inbounds nuw i32, ptr %10, i64 %indvars.iv
  %12 = load i32, ptr %11, align 4
  %13 = add i32 %12, %1
  store i32 %13, ptr %11, align 4
  %indvars.iv.next = add nuw nsw i64 %indvars.iv, 1
  %14 = load i32, ptr %3, align 8
  %15 = zext i32 %14 to i64
  %16 = icmp samesign ult i64 %indvars.iv.next, %15
  br i1 %16, label %9, label %.preheader, !llvm.loop !12

._crit_edge:                                      ; preds = %17, %.preheader
  ret void

17:                                               ; preds = %.lr.ph14, %17
  %indvars.iv17 = phi i64 [ 0, %.lr.ph14 ], [ %indvars.iv.next18, %17 ]
  %18 = load ptr, ptr %8, align 8
  %19 = getelementptr inbounds nuw ptr, ptr %18, i64 %indvars.iv17
  %20 = load ptr, ptr %19, align 8
  tail call void @_ZN6Assimp13SceneCombiner21OffsetNodeMeshIndicesEP6aiNodej(ptr noundef %20, i32 noundef %1)
  %indvars.iv.next18 = add nuw nsw i64 %indvars.iv17, 1
  %21 = load i32, ptr %6, align 8
  %22 = zext i32 %21 to i64
  %23 = icmp samesign ult i64 %indvars.iv.next18, %22
  br i1 %23, label %17, label %._crit_edge, !llvm.loop !13
}